target datalayout = "e-m:e-p270:32:32-p271:32:32-p272:64:64-i64:64-i128:128-f80:128-n8:16:32:64-S128"
target triple = "x86_64-pc-linux-gnu"

%struct.rhash_context_ext = type { %struct.rhash_context, i32, i32, i32, ptr, ptr, ptr, [0 x %struct.rhash_vector_item] }
%struct.rhash_context = type { i64, i32 }
%struct.rhash_vector_item = type { ptr, ptr }
%struct.rhash_hash_info = type { ptr, i64, i64, ptr, ptr, ptr, ptr }

; Function Attrs: nounwind uwtable
define dso_local void @rhash_free(ptr noundef %0) #0 {
  %2 = alloca ptr, align 8
  %3 = alloca ptr, align 8
  %4 = alloca i32, align 4
  %5 = alloca i32, align 4
  %6 = alloca ptr, align 8
  store ptr %0, ptr %2, align 8, !tbaa !33
  call void @llvm.lifetime.start.p0(i64 8, ptr %3) #8
  %7 = load ptr, ptr %2, align 8, !tbaa !33
  store ptr %7, ptr %3, align 8, !tbaa !13
  call void @llvm.lifetime.start.p0(i64 4, ptr %4) #8
  %8 = load ptr, ptr %2, align 8, !tbaa !33
  %9 = icmp eq ptr %8, null
  br i1 %9, label %10, label %11

10:                                               ; preds = %1
  store i32 1, ptr %5, align 4
  br label %49

11:                                               ; preds = %1
  %12 = load ptr, ptr %3, align 8, !tbaa !13
  %13 = getelementptr inbounds nuw %struct.rhash_context_ext, ptr %12, i32 0, i32 3
  store volatile i32 -556882451, ptr %13, align 8, !tbaa !4
  store i32 0, ptr %4, align 4, !tbaa !4
  br label %14

14:                                               ; preds = %44, %11
  %15 = load i32, ptr %4, align 4, !tbaa !4
  %16 = load ptr, ptr %3, align 8, !tbaa !13
  %17 = getelementptr inbounds nuw %struct.rhash_context_ext, ptr %16, i32 0, i32 1
  %18 = load i32, ptr %17, align 8, !tbaa !4
  %19 = icmp ult i32 %15, %18
  br i1 %19, label %20, label %47

20:                                               ; preds = %14
  call void @llvm.lifetime.start.p0(i64 8, ptr %6) #8
  %21 = load ptr, ptr %3, align 8, !tbaa !13
  %22 = getelementptr inbounds nuw %struct.rhash_context_ext, ptr %21, i32 0, i32 7
  %23 = load i32, ptr %4, align 4, !tbaa !4
  %24 = zext i32 %23 to i64
  %25 = getelementptr inbounds nuw [0 x %struct.rhash_vector_item], ptr %22, i64 0, i64 %24
  %26 = getelementptr inbounds nuw %struct.rhash_vector_item, ptr %25, i32 0, i32 0
  %27 = load ptr, ptr %26, align 8, !tbaa !27
  store ptr %27, ptr %6, align 8, !tbaa !15
  %28 = load ptr, ptr %6, align 8, !tbaa !15
  %29 = getelementptr inbounds nuw %struct.rhash_hash_info, ptr %28, i32 0, i32 6
  %30 = load ptr, ptr %29, align 8, !tbaa !35
  %31 = icmp ne ptr %30, null
  br i1 %31, label %32, label %43

32:                                               ; preds = %20
  %33 = load ptr, ptr %6, align 8, !tbaa !15
  %34 = getelementptr inbounds nuw %struct.rhash_hash_info, ptr %33, i32 0, i32 6
  %35 = load ptr, ptr %34, align 8, !tbaa !35
  %36 = load ptr, ptr %3, align 8, !tbaa !13
  %37 = getelementptr inbounds nuw %struct.rhash_context_ext, ptr %36, i32 0, i32 7
  %38 = load i32, ptr %4, align 4, !tbaa !4
  %39 = zext i32 %38 to i64
  %40 = getelementptr inbounds nuw [0 x %struct.rhash_vector_item], ptr %37, i64 0, i64 %39
  %41 = getelementptr inbounds nuw %struct.rhash_vector_item, ptr %40, i32 0, i32 1
  %42 = load ptr, ptr %41, align 8, !tbaa !29
  call void %35(ptr noundef %42)
  br label %43

43:                                               ; preds = %32, %20
  call void @llvm.lifetime.end.p0(i64 8, ptr %6) #8
  br label %44

44:                                               ; preds = %43
  %45 = load i32, ptr %4, align 4, !tbaa !4
  %46 = add i32 %45, 1
  store i32 %46, ptr %4, align 4, !tbaa !4
  br label %14, !llvm.loop !36

47:                                               ; preds = %14
  %48 = load ptr, ptr %3, align 8, !tbaa !13
  call void @free(ptr noundef %48) #8
  store i32 0, ptr %5, align 4
  br label %49

49:                                               ; preds = %47, %10
  call void @llvm.lifetime.end.p0(i64 4, ptr %4) #8
  call void @llvm.lifetime.end.p0(i64 8, ptr %3) #8
  %50 = load i32, ptr %5, align 4
  switch i32 %50, label %52 [
    i32 0, label %51
    i32 1, label %51
  ]

51:                                               ; preds = %49, %49
  ret void

52:                                               ; preds = %49
  unreachable
}