; Function Attrs: nounwind uwtable
define dso_local void @rhash_free(ptr noundef %0) local_unnamed_addr #0 {
  %2 = icmp eq ptr %0, null
  br i1 %2, label %21, label %3

3:                                                ; preds = %1
  %4 = getelementptr inbounds nuw i8, ptr %0, i64 24
  store volatile i32 -556882451, ptr %4, align 8, !tbaa !4
  %5 = getelementptr inbounds nuw i8, ptr %0, i64 16
  %6 = load i32, ptr %5, align 8, !tbaa !4
  %.not15 = icmp eq i32 %6, 0
  br i1 %.not15, label %._crit_edge, label %.lr.ph

.lr.ph:                                           ; preds = %3
  %7 = getelementptr inbounds nuw i8, ptr %0, i64 56
  br label %8

8:                                                ; preds = %.lr.ph, %17
  %9 = phi i32 [ %6, %.lr.ph ], [ %18, %17 ]
  %indvars.iv = phi i64 [ 0, %.lr.ph ], [ %indvars.iv.next, %17 ]
  %10 = getelementptr inbounds nuw [0 x %struct.rhash_vector_item], ptr %7, i64 0, i64 %indvars.iv
  %11 = load ptr, ptr %10, align 8, !tbaa !20
  %12 = getelementptr inbounds nuw i8, ptr %11, i64 48
  %13 = load ptr, ptr %12, align 8, !tbaa !26
  %.not = icmp eq ptr %13, null
  br i1 %.not, label %17, label %14

14:                                               ; preds = %8
  %15 = getelementptr inbounds nuw i8, ptr %10, i64 8
  %16 = load ptr, ptr %15, align 8, !tbaa !22
  tail call void %13(ptr noundef %16) #15
  %.pre = load i32, ptr %5, align 8, !tbaa !4
  br label %17

17:                                               ; preds = %14, %8
  %18 = phi i32 [ %.pre, %14 ], [ %9, %8 ]
  %indvars.iv.next = add nuw nsw i64 %indvars.iv, 1
  %19 = zext i32 %18 to i64
  %20 = icmp samesign ult i64 %indvars.iv.next, %19
  br i1 %20, label %8, label %._crit_edge, !llvm.loop !27

._crit_edge:                                      ; preds = %17, %3
  tail call void @free(ptr noundef nonnull %0) #15
  br label %21

21:                                               ; preds = %1, %._crit_edge
  ret void
}